; Function Attrs: nounwind uwtable
define internal fastcc i32 @imap_perform_search(ptr noundef %0) unnamed_addr #0 {
  %2 = getelementptr inbounds nuw i8, ptr %0, i64 440
  %3 = load ptr, ptr %2, align 8, !tbaa !7
  %4 = getelementptr inbounds nuw i8, ptr %3, i64 56
  %5 = load ptr, ptr %4, align 8, !tbaa !111
  %.not = icmp eq ptr %5, null
  br i1 %.not, label %6, label %7

6:                                                ; preds = %1
  tail call void (ptr, ptr, ...) @Curl_failf(ptr noundef nonnull %0, ptr noundef nonnull @.str.27) #7
  br label %12

7:                                                ; preds = %1
  %8 = tail call i32 (ptr, ptr, ...) @imap_sendf(ptr noundef nonnull %0, ptr noundef nonnull @.str.28, ptr noundef nonnull %5)
  %.not9 = icmp eq i32 %8, 0
  br i1 %.not9, label %9, label %12

9:                                                ; preds = %7
  %10 = getelementptr i8, ptr %0, i64 24
  %.val = load ptr, ptr %10, align 8, !tbaa !98
  %11 = getelementptr inbounds nuw i8, ptr %.val, i64 1328
  store i32 13, ptr %11, align 8, !tbaa !110
  br label %12

12:                                               ; preds = %7, %9, %6
  %.0 = phi i32 [ 3, %6 ], [ 0, %9 ], [ %8, %7 ]
  ret i32 %.0
}